Certificate:
    Data:
        Version: 3 (0x2)
        Serial Number:
            3f:b5:fc:5c:ba:a9:b5:14:9b:e8:46:7b:7a:1b:2f:c3:a4:34:0f:1d
        Signature Algorithm: sha256WithRSAEncryption
        Issuer: CN = 127.0.0.1
        Validity
            Not Before: Dec 16 08:44:51 2022 GMT
            Not After : Dec 16 08:44:51 2023 GMT
        Subject: CN = 127.0.0.1
        Subject Public Key Info:
            Public Key Algorithm: rsaEncryption
                RSA Public-Key: (2048 bit)
                Modulus:
                    00:d5:e7:61:e6:54:49:a0:06:63:86:74:cf:33:26:
                    f2:97:c9:51:d2:2a:d0:8e:84:8d:d5:ca:cc:16:e1:
                    e8:e8:f0:de:29:c1:29:14:fb:67:10:a0:54:99:a4:
                    55:a1:cb:56:db:e6:15:5d:d8:d0:d0:a7:a9:0f:31:
                    3c:b1:3b:94:d8:f6:f4:fb:a5:18:08:8d:14:0c:e3:
                    69:83:8c:da:0b:78:83:a5:69:0a:5e:8f:47:3f:82:
                    0e:61:92:23:74:f4:c2:38:ae:2f:2f:a7:fe:17:17:
                    31:26:75:15:4d:be:64:5c:58:d4:82:6a:19:ab:84:
                    d4:80:99:68:6b:0f:d9:46:e0:2b:7a:a6:4e:4f:d4:
                    f7:00:3e:06:a8:78:a9:39:09:54:41:9e:f9:8a:30:
                    8c:b3:b5:73:51:81:a5:20:a0:25:8a:4d:d2:a1:33:
                    45:76:8a:13:7e:0e:be:02:ef:4e:fb:e2:9b:75:7c:
                    c1:82:f6:e9:cc:37:5d:11:eb:a6:d3:4b:23:b0:de:
                    3d:8b:75:04:49:e0:0f:f1:fe:c1:64:7d:0c:f6:32:
                    73:a8:bf:78:bc:c9:95:43:d7:aa:ff:db:fa:eb:c4:
                    0c:01:2b:d6:a1:7f:95:96:4b:e5:4b:d1:32:8b:ed:
                    03:af:59:b2:fb:1f:d4:16:59:a3:2b:49:35:59:17:
                    03:75
                Exponent: 65537 (0x10001)
        X509v3 extensions:
            X509v3 Subject Key Identifier: 
                32:C9:40:3B:C2:83:15:95:6A:BC:D0:EB:05:64:56:72:DC:0C:40:13
            X509v3 Authority Key Identifier: 
                keyid:32:C9:40:3B:C2:83:15:95:6A:BC:D0:EB:05:64:56:72:DC:0C:40:13

            X509v3 Basic Constraints: critical
                CA:TRUE
    Signature Algorithm: sha256WithRSAEncryption
         30:18:a2:26:57:22:c7:50:7b:5d:50:6a:94:48:e8:cc:bc:da:
         f7:da:76:ef:c6:25:13:a1:60:56:61:00:e0:f9:d9:e8:70:53:
         cd:54:ff:b4:3b:d3:97:36:39:3e:b8:ea:3f:c6:09:47:ea:25:
         86:09:e9:20:f0:5a:9f:0a:13:6b:6e:e9:9c:7d:35:d3:16:9a:
         67:da:93:fe:74:1b:44:c8:6e:8f:3f:ea:0b:7b:97:be:69:7e:
         64:32:53:ab:2e:5a:64:bd:b6:73:54:7a:ec:78:ee:1f:8c:34:
         6d:93:fe:17:d0:06:d6:58:b5:10:10:99:87:c1:06:4d:c2:38:
         86:6c:8a:37:cf:d0:f5:c4:2b:31:e2:4a:85:03:fa:98:a5:bf:
         e6:88:d6:11:62:a0:d2:d3:24:9d:06:d9:bf:41:63:44:c0:01:
         14:01:3f:c0:cf:3e:04:f4:1b:71:da:a0:b5:33:e4:07:00:14:
         7b:99:48:90:7a:94:39:eb:30:a7:ac:b2:ff:d8:23:57:e5:db:
         d5:22:18:d7:5e:02:5a:1e:88:99:4b:dd:d6:a8:93:9c:bb:4e:
         25:b1:fe:4a:85:37:e4:bc:6b:63:a8:77:d6:0e:f7:dd:25:15:
         00:5b:cb:68:25:90:91:21:48:39:76:c7:e5:0a:c8:83:bd:fa:
         06:53:e2:68
-----BEGIN CERTIFICATE-----
MIIDCTCCAfGgAwIBAgIUP7X8XLqptRSb6EZ7ehsvw6Q0Dx0wDQYJKoZIhvcNAQEL
BQAwFDESMBAGA1UEAwwJMTI3LjAuMC4xMB4XDTIyMTIxNjA4NDQ1MVoXDTIzMTIx
NjA4NDQ1MVowFDESMBAGA1UEAwwJMTI3LjAuMC4xMIIBIjANBgkqhkiG9w0BAQEF
AAOCAQ8AMIIBCgKCAQEA1edh5lRJoAZjhnTPMybyl8lR0irQjoSN1crMFuHo6PDe
KcEpFPtnEKBUmaRVoctW2+YVXdjQ0KepDzE8sTuU2Pb0+6UYCI0UDONpg4zaC3iD
pWkKXo9HP4IOYZIjdPTCOK4vL6f+FxcxJnUVTb5kXFjUgmoZq4TUgJloaw/ZRuAr
eqZOT9T3AD4GqHipOQlUQZ75ijCMs7VzUYGlIKAlik3SoTNFdooTfg6+Au9O++Kb
dXzBgvbpzDddEeum00sjsN49i3UESeAP8f7BZH0M9jJzqL94vMmVQ9eq/9v668QM
ASvWoX+VlkvlS9Eyi+0Dr1my+x/UFlmjK0k1WRcDdQIDAQABo1MwUTAdBgNVHQ4E
FgQUMslAO8KDFZVqvNDrBWRWctwMQBMwHwYDVR0jBBgwFoAUMslAO8KDFZVqvNDr
BWRWctwMQBMwDwYDVR0TAQH/BAUwAwEB/zANBgkqhkiG9w0BAQsFAAOCAQEAMBii
Jlcix1B7XVBqlEjozLza99p278YlE6FgVmEA4PnZ6HBTzVT/tDvTlzY5PrjqP8YJ
R+olhgnpIPBanwoTa27pnH010xaaZ9qT/nQbRMhujz/qC3uXvml+ZDJTqy5aZL22
c1R67HjuH4w0bZP+F9AG1li1EBCZh8EGTcI4hmyKN8/Q9cQrMeJKhQP6mKW/5ojW
EWKg0tMknQbZv0FjRMABFAE/wM8+BPQbcdqgtTPkBwAUe5lIkHqUOeswp6yy/9gj
V+Xb1SIY114CWh6ImUvd1qiTnLtOJbH+SoU35LxrY6h31g733SUVAFvLaCWQkSFI
OXbH5QrIg736BlPiaA==
-----END CERTIFICATE-----
